; Function Attrs: nounwind uwtable
define internal ptr @bytes_asstringandsize_null(ptr readnone captures(none) %0, ptr noundef %1) #0 {
  %3 = alloca ptr, align 8
  %4 = alloca i64, align 8
  %5 = alloca ptr, align 8
  call void @llvm.lifetime.start.p0(i64 8, ptr nonnull %3) #4
  call void @llvm.lifetime.start.p0(i64 8, ptr nonnull %4) #4
  call void @llvm.lifetime.start.p0(i64 8, ptr nonnull %5) #4
  store ptr @uninitialized, ptr %5, align 8, !tbaa !11
  %6 = call i32 (ptr, ptr, ...) @PyArg_ParseTuple(ptr noundef %1, ptr noundef nonnull @.str.19, ptr noundef nonnull %3, ptr noundef nonnull %4) #4
  %.not = icmp eq i32 %6, 0
  br i1 %.not, label %21, label %7

7:                                                ; preds = %2
  %8 = load ptr, ptr %3, align 8, !tbaa !13
  %9 = icmp eq ptr %8, @_Py_NoneStruct
  br i1 %9, label %10, label %11

10:                                               ; preds = %7
  store ptr null, ptr %3, align 8, !tbaa !13
  br label %11

11:                                               ; preds = %10, %7
  %12 = phi ptr [ null, %10 ], [ %8, %7 ]
  %13 = call i32 @PyBytes_AsStringAndSize(ptr noundef %12, ptr noundef nonnull %5, ptr noundef null) #4
  %14 = icmp slt i32 %13, 0
  br i1 %14, label %21, label %15

15:                                               ; preds = %11
  %16 = load ptr, ptr %5, align 8, !tbaa !11
  %17 = icmp eq ptr %16, null
  br i1 %17, label %21, label %18

18:                                               ; preds = %15
  %19 = load i64, ptr %4, align 8, !tbaa !9
  %20 = call ptr @PyBytes_FromStringAndSize(ptr noundef nonnull %16, i64 noundef %19) #4
  br label %21

21:                                               ; preds = %15, %11, %2, %18
  %.0 = phi ptr [ %20, %18 ], [ null, %2 ], [ null, %11 ], [ @_Py_NoneStruct, %15 ]
  call void @llvm.lifetime.end.p0(i64 8, ptr nonnull %5) #4
  call void @llvm.lifetime.end.p0(i64 8, ptr nonnull %4) #4
  call void @llvm.lifetime.end.p0(i64 8, ptr nonnull %3) #4
  ret ptr %.0
}